target datalayout = "e-m:e-p270:32:32-p271:32:32-p272:64:64-i64:64-i128:128-f80:128-n8:16:32:64-S128"
target triple = "x86_64-pc-linux-gnu"

%"class.std::__cxx11::basic_string" = type { %"struct.std::__cxx11::basic_string<char>::_Alloc_hider", i64, %union.anon }
%"struct.std::__cxx11::basic_string<char>::_Alloc_hider" = type { ptr }
%union.anon = type { i64, [8 x i8] }
%"class.std::vector" = type { %"struct.std::_Vector_base" }
%"struct.std::_Vector_base" = type { %"struct.std::_Vector_base<std::__cxx11::basic_string<char>, std::allocator<std::__cxx11::basic_string<char>>>::_Vector_impl" }
%"struct.std::_Vector_base<std::__cxx11::basic_string<char>, std::allocator<std::__cxx11::basic_string<char>>>::_Vector_impl" = type { %"struct.std::_Vector_base<std::__cxx11::basic_string<char>, std::allocator<std::__cxx11::basic_string<char>>>::_Vector_impl_data" }
%"struct.std::_Vector_base<std::__cxx11::basic_string<char>, std::allocator<std::__cxx11::basic_string<char>>>::_Vector_impl_data" = type { ptr, ptr, ptr }
%"class.Json::StyledStreamWriter" = type <{ %"class.std::vector", ptr, %"class.std::__cxx11::basic_string", i32, [4 x i8], %"class.std::__cxx11::basic_string", i8, [7 x i8] }>

@.str.17 = private unnamed_addr constant [2 x i8] c"\0A\00", align 1

; Function Attrs: mustprogress uwtable
define dso_local void @_ZN4Json18StyledStreamWriter11writeIndentEv(ptr noundef nonnull align 8 dereferenceable(105) %0) #0 align 2 {
  %2 = alloca ptr, align 8
  store ptr %0, ptr %2, align 8
  %3 = load ptr, ptr %2, align 8
  %4 = getelementptr inbounds %"class.Json::StyledStreamWriter", ptr %3, i32 0, i32 1
  %5 = load ptr, ptr %4, align 8
  %6 = call noundef nonnull align 8 dereferenceable(8) ptr @_ZStlsISt11char_traitsIcEERSt13basic_ostreamIcT_ES5_c(ptr noundef nonnull align 8 dereferenceable(8) %5, i8 noundef signext 10)
  %7 = getelementptr inbounds %"class.Json::StyledStreamWriter", ptr %3, i32 0, i32 2
  %8 = call noundef nonnull align 8 dereferenceable(8) ptr @_ZStlsIcSt11char_traitsIcESaIcEERSt13basic_ostreamIT_T0_ES7_RKNSt7__cxx1112basic_stringIS4_S5_T1_EE(ptr noundef nonnull align 8 dereferenceable(8) %6, ptr noundef nonnull align 8 dereferenceable(32) %7)
  ret void
}

; Function Attrs: mustprogress uwtable
define dso_local void @_ZN4Json18StyledStreamWriter5writeERSoRKNS_5ValueE(ptr noundef nonnull align 8 dereferenceable(105) %0, ptr noundef nonnull align 8 dereferenceable(8) %1, ptr noundef nonnull align 8 dereferenceable(40) %2) #0 align 2 {
  %4 = alloca ptr, align 8
  %5 = alloca ptr, align 8
  %6 = alloca ptr, align 8
  store ptr %0, ptr %4, align 8
  store ptr %1, ptr %5, align 8
  store ptr %2, ptr %6, align 8
  %7 = load ptr, ptr %4, align 8
  %8 = load ptr, ptr %5, align 8
  %9 = getelementptr inbounds %"class.Json::StyledStreamWriter", ptr %7, i32 0, i32 1
  store ptr %8, ptr %9, align 8
  %10 = getelementptr inbounds %"class.Json::StyledStreamWriter", ptr %7, i32 0, i32 6
  %11 = load i8, ptr %10, align 8
  %12 = and i8 %11, -2
  %13 = or i8 %12, 0
  store i8 %13, ptr %10, align 8
  %14 = getelementptr inbounds %"class.Json::StyledStreamWriter", ptr %7, i32 0, i32 2
  call void @_ZNSt7__cxx1112basic_stringIcSt11char_traitsIcESaIcEE5clearEv(ptr noundef nonnull align 8 dereferenceable(32) %14) #9
  %15 = getelementptr inbounds %"class.Json::StyledStreamWriter", ptr %7, i32 0, i32 6
  %16 = load i8, ptr %15, align 8
  %17 = and i8 %16, -3
  %18 = or i8 %17, 2
  store i8 %18, ptr %15, align 8
  %19 = load ptr, ptr %6, align 8
  call void @_ZN4Json18StyledStreamWriter23writeCommentBeforeValueERKNS_5ValueE(ptr noundef nonnull align 8 dereferenceable(105) %7, ptr noundef nonnull align 8 dereferenceable(40) %19)
  %20 = getelementptr inbounds %"class.Json::StyledStreamWriter", ptr %7, i32 0, i32 6
  %21 = load i8, ptr %20, align 8
  %22 = lshr i8 %21, 1
  %23 = and i8 %22, 1
  %24 = trunc i8 %23 to i1
  br i1 %24, label %26, label %25

25:                                               ; preds = %3
  call void @_ZN4Json18StyledStreamWriter11writeIndentEv(ptr noundef nonnull align 8 dereferenceable(105) %7)
  br label %26

26:                                               ; preds = %25, %3
  %27 = getelementptr inbounds %"class.Json::StyledStreamWriter", ptr %7, i32 0, i32 6
  %28 = load i8, ptr %27, align 8
  %29 = and i8 %28, -3
  %30 = or i8 %29, 2
  store i8 %30, ptr %27, align 8
  %31 = load ptr, ptr %6, align 8
  call void @_ZN4Json18StyledStreamWriter10writeValueERKNS_5ValueE(ptr noundef nonnull align 8 dereferenceable(105) %7, ptr noundef nonnull align 8 dereferenceable(40) %31)
  %32 = load ptr, ptr %6, align 8
  call void @_ZN4Json18StyledStreamWriter32writeCommentAfterValueOnSameLineERKNS_5ValueE(ptr noundef nonnull align 8 dereferenceable(105) %7, ptr noundef nonnull align 8 dereferenceable(40) %32)
  %33 = getelementptr inbounds %"class.Json::StyledStreamWriter", ptr %7, i32 0, i32 1
  %34 = load ptr, ptr %33, align 8
  %35 = call noundef nonnull align 8 dereferenceable(8) ptr @_ZStlsISt11char_traitsIcEERSt13basic_ostreamIcT_ES5_PKc(ptr noundef nonnull align 8 dereferenceable(8) %34, ptr noundef @.str.17)
  %36 = getelementptr inbounds %"class.Json::StyledStreamWriter", ptr %7, i32 0, i32 1
  store ptr null, ptr %36, align 8
  ret void
}