; Function Attrs: mustprogress uwtable
define dso_local void @_ZN4Json18StyledStreamWriter5writeERSoRKNS_5ValueE(ptr noundef nonnull align 8 dereferenceable(105) %0, ptr noundef nonnull align 8 dereferenceable(8) %1, ptr noundef nonnull align 8 dereferenceable(40) %2) local_unnamed_addr #0 align 2 {
  %4 = getelementptr inbounds i8, ptr %0, i64 24
  store ptr %1, ptr %4, align 8
  %5 = getelementptr inbounds i8, ptr %0, i64 104
  %6 = load i8, ptr %5, align 8
  %7 = and i8 %6, -2
  store i8 %7, ptr %5, align 8
  %8 = getelementptr inbounds i8, ptr %0, i64 32
  tail call void @_ZNSt7__cxx1112basic_stringIcSt11char_traitsIcESaIcEE5clearEv(ptr noundef nonnull align 8 dereferenceable(32) %8) #19
  %9 = load i8, ptr %5, align 8
  %10 = or i8 %9, 2
  store i8 %10, ptr %5, align 8
  tail call void @_ZN4Json18StyledStreamWriter23writeCommentBeforeValueERKNS_5ValueE(ptr noundef nonnull align 8 dereferenceable(105) %0, ptr noundef nonnull align 8 dereferenceable(40) %2)
  %11 = load i8, ptr %5, align 8
  %12 = and i8 %11, 2
  %.not = icmp eq i8 %12, 0
  br i1 %.not, label %13, label %17

13:                                               ; preds = %3
  %14 = load ptr, ptr %4, align 8
  %15 = tail call noundef nonnull align 8 dereferenceable(8) ptr @_ZStlsISt11char_traitsIcEERSt13basic_ostreamIcT_ES5_c(ptr noundef nonnull align 8 dereferenceable(8) %14, i8 noundef signext 10)
  %16 = tail call noundef nonnull align 8 dereferenceable(8) ptr @_ZStlsIcSt11char_traitsIcESaIcEERSt13basic_ostreamIT_T0_ES7_RKNSt7__cxx1112basic_stringIS4_S5_T1_EE(ptr noundef nonnull align 8 dereferenceable(8) %15, ptr noundef nonnull align 8 dereferenceable(32) %8)
  %.pre = load i8, ptr %5, align 8
  br label %17

17:                                               ; preds = %13, %3
  %18 = phi i8 [ %.pre, %13 ], [ %11, %3 ]
  %19 = or i8 %18, 2
  store i8 %19, ptr %5, align 8
  tail call void @_ZN4Json18StyledStreamWriter10writeValueERKNS_5ValueE(ptr noundef nonnull align 8 dereferenceable(105) %0, ptr noundef nonnull align 8 dereferenceable(40) %2)
  tail call void @_ZN4Json18StyledStreamWriter32writeCommentAfterValueOnSameLineERKNS_5ValueE(ptr noundef nonnull align 8 dereferenceable(105) %0, ptr noundef nonnull align 8 dereferenceable(40) %2)
  %20 = load ptr, ptr %4, align 8
  %21 = tail call noundef nonnull align 8 dereferenceable(8) ptr @_ZStlsISt11char_traitsIcEERSt13basic_ostreamIcT_ES5_PKc(ptr noundef nonnull align 8 dereferenceable(8) %20, ptr noundef nonnull @.str.17)
  store ptr null, ptr %4, align 8
  ret void
}